; Function Attrs: mustprogress uwtable
define hidden void @_ZN4cvc58internal6theory7strings5utils11printConcatERSoRSt6vectorINS0_12NodeTemplateILb1EEESaIS7_EE(ptr noundef nonnull align 8 dereferenceable(8) %0, ptr noundef nonnull readonly align 8 captures(none) dereferenceable(24) %1) local_unnamed_addr #4 personality ptr @__gxx_personality_v0 {
  %3 = getelementptr inbounds nuw i8, ptr %1, i64 8
  %4 = load ptr, ptr %3, align 8, !tbaa !17
  %5 = load ptr, ptr %1, align 8, !tbaa !26
  %6 = ptrtoint ptr %4 to i64
  %7 = ptrtoint ptr %5 to i64
  %8 = sub i64 %6, %7
  %9 = and i64 %8, 34359738360
  %.not11 = icmp eq i64 %9, 0
  br i1 %.not11, label %._crit_edge, label %.lr.ph.preheader

.lr.ph.preheader:                                 ; preds = %2
  %10 = lshr exact i64 %8, 3
  %wide.trip.count = and i64 %10, 4294967295
  br label %.lr.ph

._crit_edge:                                      ; preds = %_ZN4cvc58internallsERSoNS0_12NodeTemplateILb0EEE.exit, %2
  ret void

.lr.ph:                                           ; preds = %.lr.ph.preheader, %_ZN4cvc58internallsERSoNS0_12NodeTemplateILb0EEE.exit
  %indvars.iv = phi i64 [ 0, %.lr.ph.preheader ], [ %indvars.iv.next, %_ZN4cvc58internallsERSoNS0_12NodeTemplateILb0EEE.exit ]
  %.not = icmp eq i64 %indvars.iv, 0
  br i1 %.not, label %_ZN4cvc58internallsERSoNS0_12NodeTemplateILb0EEE.exit, label %11

11:                                               ; preds = %.lr.ph
  %12 = tail call noundef nonnull align 8 dereferenceable(8) ptr @_ZSt16__ostream_insertIcSt11char_traitsIcEERSt13basic_ostreamIT_T0_ES6_PKS3_l(ptr noundef nonnull align 8 dereferenceable(8) %0, ptr noundef nonnull @.str, i64 noundef 4)
  br label %_ZN4cvc58internallsERSoNS0_12NodeTemplateILb0EEE.exit

_ZN4cvc58internallsERSoNS0_12NodeTemplateILb0EEE.exit: ; preds = %11, %.lr.ph
  %13 = load ptr, ptr %1, align 8, !tbaa !26
  %14 = getelementptr inbounds nuw %"class.cvc5::internal::NodeTemplate", ptr %13, i64 %indvars.iv
  %15 = load ptr, ptr %14, align 8, !tbaa !8
  tail call void @_ZNK4cvc58internal4expr9NodeValue8toStreamERSo(ptr noundef nonnull align 8 dereferenceable(24) %15, ptr noundef nonnull align 8 dereferenceable(8) %0)
  %indvars.iv.next = add nuw nsw i64 %indvars.iv, 1
  %exitcond.not = icmp eq i64 %indvars.iv.next, %wide.trip.count
  br i1 %exitcond.not, label %._crit_edge, label %.lr.ph, !llvm.loop !240
}